target datalayout = "e-m:e-p270:32:32-p271:32:32-p272:64:64-i64:64-i128:128-f80:128-n8:16:32:64-S128"
target triple = "x86_64-pc-linux-gnu"

%struct.ossl_decoder_st = type { %struct.ossl_endecode_base_st, ptr, ptr, ptr, ptr, ptr, ptr, ptr, ptr, ptr }
%struct.ossl_endecode_base_st = type { ptr, i32, ptr, ptr, ptr, %struct.CRYPTO_REF_COUNT }
%struct.CRYPTO_REF_COUNT = type { i32 }

; Function Attrs: nounwind uwtable
define i32 @OSSL_DECODER_names_do_all(ptr noundef %0, ptr noundef %1, ptr noundef %2) #0 {
  %4 = alloca i32, align 4
  %5 = alloca ptr, align 8
  %6 = alloca ptr, align 8
  %7 = alloca ptr, align 8
  %8 = alloca ptr, align 8
  %9 = alloca ptr, align 8
  store ptr %0, ptr %5, align 8, !tbaa !3
  store ptr %1, ptr %6, align 8, !tbaa !10
  store ptr %2, ptr %7, align 8, !tbaa !10
  %10 = load ptr, ptr %5, align 8, !tbaa !3
  %11 = icmp eq ptr %10, null
  br i1 %11, label %12, label %13

12:                                               ; preds = %3
  store i32 0, ptr %4, align 4
  br label %36

13:                                               ; preds = %3
  %14 = load ptr, ptr %5, align 8, !tbaa !3
  %15 = getelementptr inbounds nuw %struct.ossl_decoder_st, ptr %14, i32 0, i32 0
  %16 = getelementptr inbounds nuw %struct.ossl_endecode_base_st, ptr %15, i32 0, i32 0
  %17 = load ptr, ptr %16, align 8, !tbaa !22
  %18 = icmp ne ptr %17, null
  br i1 %18, label %19, label %35

19:                                               ; preds = %13
  call void @llvm.lifetime.start.p0(i64 8, ptr %8) #7
  %20 = load ptr, ptr %5, align 8, !tbaa !3
  %21 = getelementptr inbounds nuw %struct.ossl_decoder_st, ptr %20, i32 0, i32 0
  %22 = getelementptr inbounds nuw %struct.ossl_endecode_base_st, ptr %21, i32 0, i32 0
  %23 = load ptr, ptr %22, align 8, !tbaa !22
  %24 = call ptr @ossl_provider_libctx(ptr noundef %23)
  store ptr %24, ptr %8, align 8, !tbaa !29
  call void @llvm.lifetime.start.p0(i64 8, ptr %9) #7
  %25 = load ptr, ptr %8, align 8, !tbaa !29
  %26 = call ptr @ossl_namemap_stored(ptr noundef %25)
  store ptr %26, ptr %9, align 8, !tbaa !56
  %27 = load ptr, ptr %9, align 8, !tbaa !56
  %28 = load ptr, ptr %5, align 8, !tbaa !3
  %29 = getelementptr inbounds nuw %struct.ossl_decoder_st, ptr %28, i32 0, i32 0
  %30 = getelementptr inbounds nuw %struct.ossl_endecode_base_st, ptr %29, i32 0, i32 1
  %31 = load i32, ptr %30, align 8, !tbaa !31
  %32 = load ptr, ptr %6, align 8, !tbaa !10
  %33 = load ptr, ptr %7, align 8, !tbaa !10
  %34 = call i32 @ossl_namemap_doall_names(ptr noundef %27, i32 noundef %31, ptr noundef %32, ptr noundef %33)
  store i32 %34, ptr %4, align 4
  call void @llvm.lifetime.end.p0(i64 8, ptr %9) #7
  call void @llvm.lifetime.end.p0(i64 8, ptr %8) #7
  br label %36

35:                                               ; preds = %13
  store i32 1, ptr %4, align 4
  br label %36

36:                                               ; preds = %35, %19, %12
  %37 = load i32, ptr %4, align 4
  ret i32 %37
}