; Function Attrs: nounwind uwtable
define i32 @OSSL_DECODER_names_do_all(ptr noundef readonly captures(address_is_null) %0, ptr noundef %1, ptr noundef %2) local_unnamed_addr #2 {
  %4 = icmp eq ptr %0, null
  br i1 %4, label %13, label %5

5:                                                ; preds = %3
  %6 = load ptr, ptr %0, align 8, !tbaa !16
  %.not = icmp eq ptr %6, null
  br i1 %.not, label %13, label %7

7:                                                ; preds = %5
  %8 = tail call ptr @ossl_provider_libctx(ptr noundef nonnull %6) #8
  %9 = tail call ptr @ossl_namemap_stored(ptr noundef %8) #8
  %10 = getelementptr inbounds nuw i8, ptr %0, i64 8
  %11 = load i32, ptr %10, align 8, !tbaa !21
  %12 = tail call i32 @ossl_namemap_doall_names(ptr noundef %9, i32 noundef %11, ptr noundef %1, ptr noundef %2) #8
  br label %13

13:                                               ; preds = %5, %3, %7
  %.0 = phi i32 [ %12, %7 ], [ 0, %3 ], [ 1, %5 ]
  ret i32 %.0
}